target datalayout = "e-m:e-p270:32:32-p271:32:32-p272:64:64-i64:64-i128:128-f80:128-n8:16:32:64-S128"
target triple = "x86_64-unknown-linux-gnu"

%"struct.rocksdb::DBPropertyInfo" = type { i8, { i64, i64 }, { i64, i64 }, { i64, i64 }, { i64, i64 } }

; Function Attrs: mustprogress nounwind uwtable
define linkonce_odr noundef ptr @_ZN7rocksdb22static_cast_with_checkINS_22ColumnFamilyHandleImplENS_18ColumnFamilyHandleEEEPT_PT0_(ptr noundef %x) #1 comdat {
entry:
  %x.addr = alloca ptr, align 8
  %ret = alloca ptr, align 8
  store ptr %x, ptr %x.addr, align 8
  %0 = load ptr, ptr %x.addr, align 8
  store ptr %0, ptr %ret, align 8
  %1 = load ptr, ptr %ret, align 8
  ret ptr %1
}

; Function Attrs: mustprogress uwtable
define noundef zeroext i1 @_ZN7rocksdb6DBImpl14GetIntPropertyEPNS_18ColumnFamilyHandleERKNS_5SliceEPm(ptr noundef nonnull align 64 dereferenceable(6660) %this, ptr noundef %column_family, ptr noundef nonnull align 8 dereferenceable(16) %property, ptr noundef %value) unnamed_addr #0 align 2 {
entry:
  %retval = alloca i1, align 1
  %this.addr = alloca ptr, align 8
  %column_family.addr = alloca ptr, align 8
  %property.addr = alloca ptr, align 8
  %value.addr = alloca ptr, align 8
  %property_info = alloca ptr, align 8
  %cfd = alloca ptr, align 8
  store ptr %this, ptr %this.addr, align 8
  store ptr %column_family, ptr %column_family.addr, align 8
  store ptr %property, ptr %property.addr, align 8
  store ptr %value, ptr %value.addr, align 8
  %this1 = load ptr, ptr %this.addr, align 8
  %0 = load ptr, ptr %property.addr, align 8
  %call = call noundef ptr @_ZN7rocksdb15GetPropertyInfoERKNS_5SliceE(ptr noundef nonnull align 8 dereferenceable(16) %0)
  store ptr %call, ptr %property_info, align 8
  %1 = load ptr, ptr %property_info, align 8
  %cmp = icmp eq ptr %1, null
  br i1 %cmp, label %if.then, label %lor.lhs.false

lor.lhs.false:                                    ; preds = %entry
  %2 = load ptr, ptr %property_info, align 8
  %handle_int = getelementptr inbounds %"struct.rocksdb::DBPropertyInfo", ptr %2, i32 0, i32 2
  %3 = load { i64, i64 }, ptr %handle_int, align 8
  %lhs.memptr.ptr = extractvalue { i64, i64 } %3, 0
  %cmp.ptr = icmp eq i64 %lhs.memptr.ptr, 0
  %cmp.ptr.null = icmp eq i64 %lhs.memptr.ptr, 0
  %lhs.memptr.adj = extractvalue { i64, i64 } %3, 1
  %cmp.adj = icmp eq i64 %lhs.memptr.adj, 0
  %4 = or i1 %cmp.ptr.null, %cmp.adj
  %memptr.eq = and i1 %cmp.ptr, %4
  br i1 %memptr.eq, label %if.then, label %if.end

if.then:                                          ; preds = %lor.lhs.false, %entry
  store i1 false, ptr %retval, align 1
  br label %return

if.end:                                           ; preds = %lor.lhs.false
  %5 = load ptr, ptr %column_family.addr, align 8
  %call2 = call noundef ptr @_ZN7rocksdb22static_cast_with_checkINS_22ColumnFamilyHandleImplENS_18ColumnFamilyHandleEEEPT_PT0_(ptr noundef %5)
  %vtable = load ptr, ptr %call2, align 8
  %vfn = getelementptr inbounds ptr, ptr %vtable, i64 6
  %6 = load ptr, ptr %vfn, align 8
  %call3 = call noundef ptr %6(ptr noundef nonnull align 8 dereferenceable(32) %call2)
  store ptr %call3, ptr %cfd, align 8
  %7 = load ptr, ptr %cfd, align 8
  %8 = load ptr, ptr %property_info, align 8
  %9 = load ptr, ptr %value.addr, align 8
  %call4 = call noundef zeroext i1 @_ZN7rocksdb6DBImpl22GetIntPropertyInternalEPNS_16ColumnFamilyDataERKNS_14DBPropertyInfoEbPm(ptr noundef nonnull align 64 dereferenceable(6660) %this1, ptr noundef %7, ptr noundef nonnull align 8 dereferenceable(72) %8, i1 noundef zeroext false, ptr noundef %9)
  store i1 %call4, ptr %retval, align 1
  br label %return

return:                                           ; preds = %if.end, %if.then
  %10 = load i1, ptr %retval, align 1
  ret i1 %10
}