; Function Attrs: mustprogress uwtable
define noundef zeroext i1 @_ZN7rocksdb6DBImpl14GetIntPropertyEPNS_18ColumnFamilyHandleERKNS_5SliceEPm(ptr noundef nonnull align 64 dereferenceable(6660) %this, ptr noundef %column_family, ptr noundef nonnull align 8 dereferenceable(16) %property, ptr noundef %value) unnamed_addr #5 align 2 {
entry:
  %call = tail call noundef ptr @_ZN7rocksdb15GetPropertyInfoERKNS_5SliceE(ptr noundef nonnull align 8 dereferenceable(16) %property)
  %cmp = icmp eq ptr %call, null
  br i1 %cmp, label %return, label %lor.lhs.false

lor.lhs.false:                                    ; preds = %entry
  %handle_int = getelementptr inbounds i8, ptr %call, i64 24
  %.unpack = load i64, ptr %handle_int, align 8
  %cmp.ptr = icmp eq i64 %.unpack, 0
  br i1 %cmp.ptr, label %return, label %if.end

if.end:                                           ; preds = %lor.lhs.false
  %vtable = load ptr, ptr %column_family, align 8
  %vfn = getelementptr inbounds i8, ptr %vtable, i64 48
  %0 = load ptr, ptr %vfn, align 8
  %call3 = tail call noundef ptr %0(ptr noundef nonnull align 8 dereferenceable(32) %column_family)
  %call4 = tail call noundef zeroext i1 @_ZN7rocksdb6DBImpl22GetIntPropertyInternalEPNS_16ColumnFamilyDataERKNS_14DBPropertyInfoEbPm(ptr noundef nonnull align 64 dereferenceable(6660) %this, ptr noundef %call3, ptr noundef nonnull align 8 dereferenceable(72) %call, i1 noundef zeroext false, ptr noundef %value)
  br label %return

return:                                           ; preds = %entry, %lor.lhs.false, %if.end
  %retval.0 = phi i1 [ %call4, %if.end ], [ false, %lor.lhs.false ], [ false, %entry ]
  ret i1 %retval.0
}